target datalayout = "e-m:e-p270:32:32-p271:32:32-p272:64:64-i64:64-i128:128-f80:128-n8:16:32:64-S128"
target triple = "x86_64-pc-linux-gnu"

%struct.cmsysProcess_s = type { ptr, i32, [3 x i32], [3 x i32], i32, [1024 x i8], ptr, i32, double, ptr, i32, i32, i32, i32, i32, %struct.kwsysProcessTime_s, %struct.kwsysProcessTime_s, i32, i32, %struct.fd_set, i32, i32, i32, [1025 x i8], ptr, ptr, ptr, ptr, ptr, i32, i32, i32, [2 x i32], [2 x i32], [2 x i32], i32, ptr }
%struct.kwsysProcessTime_s = type { i64, i64 }
%struct.fd_set = type { [16 x i64] }

; Function Attrs: nounwind uwtable
define internal void @kwsysProcessCleanupDescriptor(ptr noundef %0) #0 {
  %2 = alloca ptr, align 8
  store ptr %0, ptr %2, align 8, !tbaa !56
  %3 = load ptr, ptr %2, align 8, !tbaa !56
  %4 = icmp ne ptr %3, null
  br i1 %4, label %5, label %24

5:                                                ; preds = %1
  %6 = load ptr, ptr %2, align 8, !tbaa !56
  %7 = load i32, ptr %6, align 4, !tbaa !20
  %8 = icmp sgt i32 %7, 2
  br i1 %8, label %9, label %24

9:                                                ; preds = %5
  br label %10

10:                                               ; preds = %21, %9
  %11 = load ptr, ptr %2, align 8, !tbaa !56
  %12 = load i32, ptr %11, align 4, !tbaa !20
  %13 = call i32 @close(i32 noundef %12)
  %14 = icmp slt i32 %13, 0
  br i1 %14, label %15, label %19

15:                                               ; preds = %10
  %16 = call ptr @__errno_location() #14
  %17 = load i32, ptr %16, align 4, !tbaa !20
  %18 = icmp eq i32 %17, 4
  br label %19

19:                                               ; preds = %15, %10
  %20 = phi i1 [ false, %10 ], [ %18, %15 ]
  br i1 %20, label %21, label %22

21:                                               ; preds = %19
  br label %10, !llvm.loop !107

22:                                               ; preds = %19
  %23 = load ptr, ptr %2, align 8, !tbaa !56
  store i32 -1, ptr %23, align 4, !tbaa !20
  br label %24

24:                                               ; preds = %22, %5, %1
  ret void
}

; Function Attrs: nounwind uwtable
define dso_local void @cmsysProcess_Kill(ptr noundef %0) #0 {
  %2 = alloca ptr, align 8
  %3 = alloca i32, align 4
  %4 = alloca i32, align 4
  %5 = alloca i32, align 4
  store ptr %0, ptr %2, align 8, !tbaa !4
  call void @llvm.lifetime.start.p0(i64 4, ptr %3) #11
  %6 = load ptr, ptr %2, align 8, !tbaa !4
  %7 = icmp ne ptr %6, null
  br i1 %7, label %8, label %13

8:                                                ; preds = %1
  %9 = load ptr, ptr %2, align 8, !tbaa !4
  %10 = getelementptr inbounds nuw %struct.cmsysProcess_s, ptr %9, i32 0, i32 21
  %11 = load volatile i32, ptr %10, align 4, !tbaa !21
  %12 = icmp ne i32 %11, 3
  br i1 %12, label %13, label %14

13:                                               ; preds = %8, %1
  store i32 1, ptr %4, align 4
  br label %68

14:                                               ; preds = %8
  %15 = load ptr, ptr %2, align 8, !tbaa !4
  %16 = getelementptr inbounds nuw %struct.cmsysProcess_s, ptr %15, i32 0, i32 4
  call void @kwsysProcessCleanupDescriptor(ptr noundef %16)
  %17 = load ptr, ptr %2, align 8, !tbaa !4
  call void @kwsysProcessClosePipes(ptr noundef %17)
  %18 = load ptr, ptr %2, align 8, !tbaa !4
  %19 = getelementptr inbounds nuw %struct.cmsysProcess_s, ptr %18, i32 0, i32 22
  store volatile i32 1, ptr %19, align 8, !tbaa !26
  store i32 0, ptr %3, align 4, !tbaa !20
  br label %20

20:                                               ; preds = %62, %14
  %21 = load i32, ptr %3, align 4, !tbaa !20
  %22 = load ptr, ptr %2, align 8, !tbaa !4
  %23 = getelementptr inbounds nuw %struct.cmsysProcess_s, ptr %22, i32 0, i32 1
  %24 = load volatile i32, ptr %23, align 8, !tbaa !32
  %25 = icmp slt i32 %21, %24
  br i1 %25, label %26, label %65

26:                                               ; preds = %20
  call void @llvm.lifetime.start.p0(i64 4, ptr %5) #11
  %27 = load ptr, ptr %2, align 8, !tbaa !4
  %28 = getelementptr inbounds nuw %struct.cmsysProcess_s, ptr %27, i32 0, i32 6
  %29 = load volatile ptr, ptr %28, align 8, !tbaa !87
  %30 = load i32, ptr %3, align 4, !tbaa !20
  %31 = sext i32 %30 to i64
  %32 = getelementptr inbounds i32, ptr %29, i64 %31
  %33 = load volatile i32, ptr %32, align 4, !tbaa !20
  %34 = icmp ne i32 %33, 0
  br i1 %34, label %35, label %61

35:                                               ; preds = %26
  %36 = load ptr, ptr %2, align 8, !tbaa !4
  %37 = getelementptr inbounds nuw %struct.cmsysProcess_s, ptr %36, i32 0, i32 6
  %38 = load volatile ptr, ptr %37, align 8, !tbaa !87
  %39 = load i32, ptr %3, align 4, !tbaa !20
  %40 = sext i32 %39 to i64
  %41 = getelementptr inbounds i32, ptr %38, i64 %40
  %42 = load volatile i32, ptr %41, align 4, !tbaa !20
  call void @kwsysProcessKill(i32 noundef %42)
  br label %43

43:                                               ; preds = %59, %35
  %44 = load ptr, ptr %2, align 8, !tbaa !4
  %45 = getelementptr inbounds nuw %struct.cmsysProcess_s, ptr %44, i32 0, i32 6
  %46 = load volatile ptr, ptr %45, align 8, !tbaa !87
  %47 = load i32, ptr %3, align 4, !tbaa !20
  %48 = sext i32 %47 to i64
  %49 = getelementptr inbounds i32, ptr %46, i64 %48
  %50 = load volatile i32, ptr %49, align 4, !tbaa !20
  %51 = call i32 @waitpid(i32 noundef %50, ptr noundef %5, i32 noundef 0)
  %52 = icmp slt i32 %51, 0
  br i1 %52, label %53, label %57

53:                                               ; preds = %43
  %54 = call ptr @__errno_location() #14
  %55 = load i32, ptr %54, align 4, !tbaa !20
  %56 = icmp eq i32 %55, 4
  br label %57

57:                                               ; preds = %53, %43
  %58 = phi i1 [ false, %43 ], [ %56, %53 ]
  br i1 %58, label %59, label %60

59:                                               ; preds = %57
  br label %43, !llvm.loop !141

60:                                               ; preds = %57
  br label %61

61:                                               ; preds = %60, %26
  call void @llvm.lifetime.end.p0(i64 4, ptr %5) #11
  br label %62

62:                                               ; preds = %61
  %63 = load i32, ptr %3, align 4, !tbaa !20
  %64 = add nsw i32 %63, 1
  store i32 %64, ptr %3, align 4, !tbaa !20
  br label %20, !llvm.loop !142

65:                                               ; preds = %20
  %66 = load ptr, ptr %2, align 8, !tbaa !4
  %67 = getelementptr inbounds nuw %struct.cmsysProcess_s, ptr %66, i32 0, i32 20
  store i32 0, ptr %67, align 8, !tbaa !83
  store i32 0, ptr %4, align 4
  br label %68

68:                                               ; preds = %65, %13
  call void @llvm.lifetime.end.p0(i64 4, ptr %3) #11
  %69 = load i32, ptr %4, align 4
  switch i32 %69, label %71 [
    i32 0, label %70
    i32 1, label %70
  ]

70:                                               ; preds = %68, %68
  ret void

71:                                               ; preds = %68
  unreachable
}