; Function Attrs: nounwind uwtable
define dso_local void @cmsysProcess_Kill(ptr noundef %0) local_unnamed_addr #4 {
  %2 = alloca i32, align 4
  %.not = icmp eq ptr %0, null
  br i1 %.not, label %44, label %3

3:                                                ; preds = %1
  %4 = getelementptr inbounds nuw i8, ptr %0, i64 1292
  %5 = load volatile i32, ptr %4, align 4, !tbaa !18
  %.not15 = icmp eq i32 %5, 3
  br i1 %.not15, label %6, label %44

6:                                                ; preds = %3
  %7 = getelementptr inbounds nuw i8, ptr %0, i64 36
  %8 = load i32, ptr %7, align 4, !tbaa !35
  %9 = icmp sgt i32 %8, 2
  br i1 %9, label %.preheader.i, label %kwsysProcessCleanupDescriptor.exit

.preheader.i:                                     ; preds = %6, %13
  %10 = load i32, ptr %7, align 4, !tbaa !35
  %11 = tail call i32 @close(i32 noundef %10) #25
  %12 = icmp slt i32 %11, 0
  br i1 %12, label %13, label %.critedge.i

13:                                               ; preds = %.preheader.i
  %14 = tail call ptr @__errno_location() #28
  %15 = load i32, ptr %14, align 4, !tbaa !35
  %16 = icmp eq i32 %15, 4
  br i1 %16, label %.preheader.i, label %.critedge.i, !llvm.loop !94

.critedge.i:                                      ; preds = %13, %.preheader.i
  store i32 -1, ptr %7, align 4, !tbaa !35
  br label %kwsysProcessCleanupDescriptor.exit

kwsysProcessCleanupDescriptor.exit:               ; preds = %6, %.critedge.i
  tail call fastcc void @kwsysProcessClosePipes(ptr noundef %0)
  %17 = getelementptr inbounds nuw i8, ptr %0, i64 1296
  store volatile i32 1, ptr %17, align 8, !tbaa !21
  %18 = getelementptr inbounds nuw i8, ptr %0, i64 8
  %19 = load volatile i32, ptr %18, align 8, !tbaa !22
  %20 = icmp sgt i32 %19, 0
  br i1 %20, label %.lr.ph, label %._crit_edge

.lr.ph:                                           ; preds = %kwsysProcessCleanupDescriptor.exit
  %21 = getelementptr inbounds nuw i8, ptr %0, i64 1064
  br label %22

22:                                               ; preds = %.lr.ph, %.critedge
  %indvars.iv = phi i64 [ 0, %.lr.ph ], [ %indvars.iv.next, %.critedge ]
  call void @llvm.lifetime.start.p0(i64 4, ptr nonnull %2) #25
  %23 = load volatile ptr, ptr %21, align 8, !tbaa !55
  %24 = getelementptr inbounds nuw i32, ptr %23, i64 %indvars.iv
  %25 = load volatile i32, ptr %24, align 4, !tbaa !35
  %.not16 = icmp eq i32 %25, 0
  br i1 %.not16, label %.critedge, label %26

26:                                               ; preds = %22
  %27 = load volatile ptr, ptr %21, align 8, !tbaa !55
  %28 = getelementptr inbounds nuw i32, ptr %27, i64 %indvars.iv
  %29 = load volatile i32, ptr %28, align 4, !tbaa !35
  call fastcc void @kwsysProcessKill(i32 noundef %29)
  br label %30

30:                                               ; preds = %36, %26
  %31 = load volatile ptr, ptr %21, align 8, !tbaa !55
  %32 = getelementptr inbounds nuw i32, ptr %31, i64 %indvars.iv
  %33 = load volatile i32, ptr %32, align 4, !tbaa !35
  %34 = call i32 @waitpid(i32 noundef %33, ptr noundef nonnull %2, i32 noundef 0) #25
  %35 = icmp slt i32 %34, 0
  br i1 %35, label %36, label %.critedge

36:                                               ; preds = %30
  %37 = tail call ptr @__errno_location() #28
  %38 = load i32, ptr %37, align 4, !tbaa !35
  %39 = icmp eq i32 %38, 4
  br i1 %39, label %30, label %.critedge, !llvm.loop !123

.critedge:                                        ; preds = %36, %30, %22
  call void @llvm.lifetime.end.p0(i64 4, ptr nonnull %2) #25
  %indvars.iv.next = add nuw nsw i64 %indvars.iv, 1
  %40 = load volatile i32, ptr %18, align 8, !tbaa !22
  %41 = sext i32 %40 to i64
  %42 = icmp slt i64 %indvars.iv.next, %41
  br i1 %42, label %22, label %._crit_edge, !llvm.loop !124

._crit_edge:                                      ; preds = %.critedge, %kwsysProcessCleanupDescriptor.exit
  %43 = getelementptr inbounds nuw i8, ptr %0, i64 1288
  store i32 0, ptr %43, align 8, !tbaa !101
  br label %44

44:                                               ; preds = %1, %3, %._crit_edge
  ret void
}